target datalayout = "e-m:e-p270:32:32-p271:32:32-p272:64:64-i64:64-i128:128-f80:128-n8:16:32:64-S128"
target triple = "x86_64-pc-linux-gnu"

@hf_ipcp_opt_src_address = internal global i32 0, align 4
@hf_ipcp_opt_dst_address = internal global i32 0, align 4
@ett_ipcp_ipaddrs_opt = internal global i32 0, align 4
@proto_ipcp_option_addrs = internal global i32 0, align 4

; Function Attrs: null_pointer_is_valid sspstrong uwtable
define internal i32 @dissect_ipcp_addrs_opt(ptr noundef %0, ptr noundef %1, ptr noundef %2, ptr noundef %3) #1 {
  %5 = alloca i32, align 4
  %6 = alloca ptr, align 8
  %7 = alloca ptr, align 8
  %8 = alloca ptr, align 8
  %9 = alloca ptr, align 8
  %10 = alloca ptr, align 8
  %11 = alloca ptr, align 8
  %12 = alloca i32, align 4
  %13 = alloca i32, align 4
  store ptr %0, ptr %6, align 8
  store ptr %1, ptr %7, align 8
  store ptr %2, ptr %8, align 8
  store ptr %3, ptr %9, align 8
  call void @llvm.lifetime.start.p0(i64 8, ptr %10) #6
  call void @llvm.lifetime.start.p0(i64 8, ptr %11) #6
  call void @llvm.lifetime.start.p0(i64 4, ptr %12) #6
  store i32 0, ptr %12, align 4
  %14 = load ptr, ptr %6, align 8
  %15 = load ptr, ptr %7, align 8
  %16 = load ptr, ptr %8, align 8
  %17 = load i32, ptr @proto_ipcp_option_addrs, align 4
  %18 = load i32, ptr @ett_ipcp_ipaddrs_opt, align 4
  %19 = call zeroext i1 @dissect_ipcp_fixed_opt(ptr noundef %14, ptr noundef %15, ptr noundef %16, i32 noundef %17, i32 noundef %18, i32 noundef 10, ptr noundef %10, ptr noundef %11)
  br i1 %19, label %23, label %20

20:                                               ; preds = %4
  %21 = load ptr, ptr %6, align 8
  %22 = call i32 @tvb_captured_length(ptr noundef %21)
  store i32 %22, ptr %5, align 4
  store i32 1, ptr %13, align 4
  br label %38

23:                                               ; preds = %4
  %24 = load ptr, ptr %10, align 8
  %25 = load i32, ptr @hf_ipcp_opt_src_address, align 4
  %26 = load ptr, ptr %6, align 8
  %27 = load i32, ptr %12, align 4
  %28 = add i32 %27, 2
  %29 = call ptr @proto_tree_add_item(ptr noundef %24, i32 noundef %25, ptr noundef %26, i32 noundef %28, i32 noundef 4, i32 noundef 0)
  %30 = load ptr, ptr %10, align 8
  %31 = load i32, ptr @hf_ipcp_opt_dst_address, align 4
  %32 = load ptr, ptr %6, align 8
  %33 = load i32, ptr %12, align 4
  %34 = add i32 %33, 6
  %35 = call ptr @proto_tree_add_item(ptr noundef %30, i32 noundef %31, ptr noundef %32, i32 noundef %34, i32 noundef 4, i32 noundef 0)
  %36 = load ptr, ptr %6, align 8
  %37 = call i32 @tvb_captured_length(ptr noundef %36)
  store i32 %37, ptr %5, align 4
  store i32 1, ptr %13, align 4
  br label %38

38:                                               ; preds = %23, %20
  call void @llvm.lifetime.end.p0(i64 4, ptr %12) #6
  call void @llvm.lifetime.end.p0(i64 8, ptr %11) #6
  call void @llvm.lifetime.end.p0(i64 8, ptr %10) #6
  %39 = load i32, ptr %5, align 4
  ret i32 %39
}